; Function Attrs: nounwind uwtable
define void @evtag_encode_int(ptr noundef %0, i32 noundef %1) local_unnamed_addr #1 {
  %3 = alloca [5 x i8], align 1
  call void @llvm.lifetime.start.p0(i64 5, ptr nonnull %3) #7
  call void @llvm.memset.p0.i64(ptr noundef nonnull align 1 dereferenceable(5) %3, i8 0, i64 5, i1 false)
  %.not23.i = icmp eq i32 %1, 0
  br i1 %.not23.i, label %encode_int_internal.exit, label %.lr.ph.i

.lr.ph.i:                                         ; preds = %2, %17
  %.02025.i = phi i32 [ %19, %17 ], [ 1, %2 ]
  %.02124.i = phi i32 [ %18, %17 ], [ %1, %2 ]
  %4 = and i32 %.02025.i, 1
  %.not22.i = icmp eq i32 %4, 0
  %5 = lshr i32 %.02025.i, 1
  %6 = zext nneg i32 %5 to i64
  %7 = getelementptr inbounds nuw i8, ptr %3, i64 %6
  %8 = load i8, ptr %7, align 1
  %.021.tr.i = trunc i32 %.02124.i to i8
  br i1 %.not22.i, label %13, label %9

9:                                                ; preds = %.lr.ph.i
  %10 = and i8 %8, -16
  %11 = and i8 %.021.tr.i, 15
  %12 = or disjoint i8 %10, %11
  br label %17

13:                                               ; preds = %.lr.ph.i
  %14 = and i8 %8, 15
  %15 = shl i8 %.021.tr.i, 4
  %16 = or disjoint i8 %14, %15
  br label %17

17:                                               ; preds = %13, %9
  %.sink.i = phi i8 [ %16, %13 ], [ %12, %9 ]
  store i8 %.sink.i, ptr %7, align 1
  %18 = lshr i32 %.02124.i, 4
  %19 = add nuw nsw i32 %.02025.i, 1
  %.not.i = icmp ult i32 %.02124.i, 16
  br i1 %.not.i, label %._crit_edge.i, label %.lr.ph.i, !llvm.loop !3

._crit_edge.i:                                    ; preds = %17
  %.pre.i = load i8, ptr %3, align 1
  %20 = and i8 %.pre.i, 15
  %21 = icmp samesign ugt i32 %.02025.i, 1
  %.020.tr.i = trunc i32 %19 to i8
  %22 = shl i8 %.020.tr.i, 4
  %23 = add i8 %22, -32
  %spec.select.i = select i1 %21, i8 %23, i8 0
  %24 = or disjoint i8 %20, %spec.select.i
  %25 = add nuw i32 %.02025.i, 2
  %26 = lshr i32 %25, 1
  %27 = zext nneg i32 %26 to i64
  br label %encode_int_internal.exit

encode_int_internal.exit:                         ; preds = %2, %._crit_edge.i
  %.020.lcssa29.i = phi i64 [ 1, %2 ], [ %27, %._crit_edge.i ]
  %28 = phi i8 [ 0, %2 ], [ %24, %._crit_edge.i ]
  store i8 %28, ptr %3, align 1
  %29 = call i32 @evbuffer_add(ptr noundef %0, ptr noundef nonnull %3, i64 noundef %.020.lcssa29.i) #7
  call void @llvm.lifetime.end.p0(i64 5, ptr nonnull %3) #7
  ret void
}